target datalayout = "e-m:e-p270:32:32-p271:32:32-p272:64:64-i64:64-i128:128-f80:128-n8:16:32:64-S128"
target triple = "x86_64-pc-linux-gnu"

%struct._proto_node = type { ptr, ptr, ptr, ptr, ptr, ptr, ptr }
%struct.field_info = type { ptr, i32, i32, i32, i32, i32, i32, ptr, ptr, ptr, i32, i32 }
%struct.anon.4 = type { i32, i32, i32 }

@hf_ipv6_teredo_server_ipv4 = internal global i32 0, align 4
@hf_ipv6_teredo_port = internal global i32 0, align 4
@hf_ipv6_teredo_client_ipv4 = internal global i32 0, align 4

; Function Attrs: inlinehint nounwind null_pointer_is_valid sspstrong uwtable
define internal void @proto_item_set_hidden(ptr noundef %0) #7 {
  %2 = alloca ptr, align 8
  store ptr %0, ptr %2, align 8
  %3 = load ptr, ptr %2, align 8
  %4 = icmp ne ptr %3, null
  br i1 %4, label %5, label %24

5:                                                ; preds = %1
  br label %6

6:                                                ; preds = %5
  %7 = load ptr, ptr %2, align 8
  %8 = getelementptr inbounds nuw %struct._proto_node, ptr %7, i32 0, i32 5
  %9 = load ptr, ptr %8, align 8
  %10 = icmp ne ptr %9, null
  br i1 %10, label %11, label %22

11:                                               ; preds = %6
  %12 = load ptr, ptr %2, align 8
  %13 = getelementptr inbounds nuw %struct._proto_node, ptr %12, i32 0, i32 5
  %14 = load ptr, ptr %13, align 8
  %15 = getelementptr inbounds nuw %struct.field_info, ptr %14, i32 0, i32 6
  %16 = load i32, ptr %15, align 4
  %17 = or i32 %16, 1
  %18 = load ptr, ptr %2, align 8
  %19 = getelementptr inbounds nuw %struct._proto_node, ptr %18, i32 0, i32 5
  %20 = load ptr, ptr %19, align 8
  %21 = getelementptr inbounds nuw %struct.field_info, ptr %20, i32 0, i32 6
  store i32 %17, ptr %21, align 4
  br label %22

22:                                               ; preds = %11, %6
  br label %23

23:                                               ; preds = %22
  br label %24

24:                                               ; preds = %23, %1
  ret void
}

; Function Attrs: inlinehint nounwind null_pointer_is_valid sspstrong uwtable
define internal void @proto_item_set_generated(ptr noundef %0) #7 {
  %2 = alloca ptr, align 8
  store ptr %0, ptr %2, align 8
  %3 = load ptr, ptr %2, align 8
  %4 = icmp ne ptr %3, null
  br i1 %4, label %5, label %24

5:                                                ; preds = %1
  br label %6

6:                                                ; preds = %5
  %7 = load ptr, ptr %2, align 8
  %8 = getelementptr inbounds nuw %struct._proto_node, ptr %7, i32 0, i32 5
  %9 = load ptr, ptr %8, align 8
  %10 = icmp ne ptr %9, null
  br i1 %10, label %11, label %22

11:                                               ; preds = %6
  %12 = load ptr, ptr %2, align 8
  %13 = getelementptr inbounds nuw %struct._proto_node, ptr %12, i32 0, i32 5
  %14 = load ptr, ptr %13, align 8
  %15 = getelementptr inbounds nuw %struct.field_info, ptr %14, i32 0, i32 6
  %16 = load i32, ptr %15, align 4
  %17 = or i32 %16, 2
  %18 = load ptr, ptr %2, align 8
  %19 = getelementptr inbounds nuw %struct._proto_node, ptr %18, i32 0, i32 5
  %20 = load ptr, ptr %19, align 8
  %21 = getelementptr inbounds nuw %struct.field_info, ptr %20, i32 0, i32 6
  store i32 %17, ptr %21, align 4
  br label %22

22:                                               ; preds = %11, %6
  br label %23

23:                                               ; preds = %22
  br label %24

24:                                               ; preds = %23, %1
  ret void
}

; Function Attrs: null_pointer_is_valid sspstrong uwtable
define internal void @add_ipv6_address_teredo(ptr noundef %0, ptr noundef %1, i32 noundef %2, i32 noundef %3, i32 noundef %4, i32 noundef %5) #0 {
  %7 = alloca ptr, align 8
  %8 = alloca ptr, align 8
  %9 = alloca i32, align 4
  %10 = alloca i32, align 4
  %11 = alloca i32, align 4
  %12 = alloca i32, align 4
  %13 = alloca i16, align 2
  %14 = alloca i32, align 4
  %15 = alloca [2 x %struct.anon.4], align 16
  %16 = alloca ptr, align 8
  %17 = alloca i32, align 4
  store ptr %0, ptr %7, align 8
  store ptr %1, ptr %8, align 8
  store i32 %2, ptr %9, align 4
  store i32 %3, ptr %10, align 4
  store i32 %4, ptr %11, align 4
  store i32 %5, ptr %12, align 4
  %18 = load ptr, ptr %8, align 8
  %19 = load i32, ptr %9, align 4
  %20 = call i32 @tvb_get_ntohl(ptr noundef %18, i32 noundef %19)
  %21 = icmp ne i32 %20, 536936448
  br i1 %21, label %22, label %23

22:                                               ; preds = %6
  br label %118

23:                                               ; preds = %6
  call void @llvm.lifetime.start.p0(i64 2, ptr %13) #15
  %24 = load ptr, ptr %8, align 8
  %25 = load i32, ptr %9, align 4
  %26 = add i32 %25, 10
  %27 = call zeroext i16 @tvb_get_ntohs(ptr noundef %24, i32 noundef %26)
  %28 = zext i16 %27 to i32
  %29 = xor i32 %28, 65535
  %30 = trunc i32 %29 to i16
  store i16 %30, ptr %13, align 2
  call void @llvm.lifetime.start.p0(i64 4, ptr %14) #15
  %31 = load ptr, ptr %8, align 8
  %32 = load i32, ptr %9, align 4
  %33 = add i32 %32, 12
  %34 = call i32 @tvb_get_ipv4(ptr noundef %31, i32 noundef %33)
  %35 = xor i32 %34, -1
  store i32 %35, ptr %14, align 4
  call void @llvm.lifetime.start.p0(i64 24, ptr %15) #15
  %36 = getelementptr inbounds nuw %struct.anon.4, ptr %15, i32 0, i32 0
  %37 = load i32, ptr %10, align 4
  store i32 %37, ptr %36, align 4
  %38 = getelementptr inbounds nuw %struct.anon.4, ptr %15, i32 0, i32 1
  %39 = load i32, ptr %11, align 4
  store i32 %39, ptr %38, align 4
  %40 = getelementptr inbounds nuw %struct.anon.4, ptr %15, i32 0, i32 2
  %41 = load i32, ptr %12, align 4
  store i32 %41, ptr %40, align 4
  %42 = getelementptr inbounds %struct.anon.4, ptr %15, i64 1
  %43 = getelementptr inbounds nuw %struct.anon.4, ptr %42, i32 0, i32 0
  %44 = load i32, ptr @hf_ipv6_teredo_server_ipv4, align 4
  store i32 %44, ptr %43, align 4
  %45 = getelementptr inbounds nuw %struct.anon.4, ptr %42, i32 0, i32 1
  %46 = load i32, ptr @hf_ipv6_teredo_port, align 4
  store i32 %46, ptr %45, align 4
  %47 = getelementptr inbounds nuw %struct.anon.4, ptr %42, i32 0, i32 2
  %48 = load i32, ptr @hf_ipv6_teredo_client_ipv4, align 4
  store i32 %48, ptr %47, align 4
  call void @llvm.lifetime.start.p0(i64 8, ptr %16) #15
  call void @llvm.lifetime.start.p0(i64 4, ptr %17) #15
  store i32 0, ptr %17, align 4
  br label %49

49:                                               ; preds = %114, %23
  %50 = load i32, ptr %17, align 4
  %51 = icmp slt i32 %50, 2
  br i1 %51, label %53, label %52

52:                                               ; preds = %49
  call void @llvm.lifetime.end.p0(i64 4, ptr %17) #15
  br label %117

53:                                               ; preds = %49
  %54 = load ptr, ptr %7, align 8
  %55 = load i32, ptr %17, align 4
  %56 = sext i32 %55 to i64
  %57 = getelementptr [2 x %struct.anon.4], ptr %15, i64 0, i64 %56
  %58 = getelementptr inbounds nuw %struct.anon.4, ptr %57, i32 0, i32 0
  %59 = load i32, ptr %58, align 4
  %60 = load ptr, ptr %8, align 8
  %61 = load i32, ptr %9, align 4
  %62 = add i32 %61, 4
  %63 = call ptr @proto_tree_add_item(ptr noundef %54, i32 noundef %59, ptr noundef %60, i32 noundef %62, i32 noundef 4, i32 noundef 0)
  store ptr %63, ptr %16, align 8
  br label %64

64:                                               ; preds = %53
  %65 = load ptr, ptr %16, align 8
  call void @proto_item_set_generated(ptr noundef %65)
  %66 = load i32, ptr %17, align 4
  %67 = icmp sgt i32 %66, 0
  br i1 %67, label %68, label %70

68:                                               ; preds = %64
  %69 = load ptr, ptr %16, align 8
  call void @proto_item_set_hidden(ptr noundef %69)
  br label %70

70:                                               ; preds = %68, %64
  br label %71

71:                                               ; preds = %70
  br label %72

72:                                               ; preds = %71
  %73 = load ptr, ptr %7, align 8
  %74 = load i32, ptr %17, align 4
  %75 = sext i32 %74 to i64
  %76 = getelementptr [2 x %struct.anon.4], ptr %15, i64 0, i64 %75
  %77 = getelementptr inbounds nuw %struct.anon.4, ptr %76, i32 0, i32 1
  %78 = load i32, ptr %77, align 4
  %79 = load ptr, ptr %8, align 8
  %80 = load i32, ptr %9, align 4
  %81 = add i32 %80, 10
  %82 = load i16, ptr %13, align 2
  %83 = zext i16 %82 to i32
  %84 = call ptr @proto_tree_add_uint(ptr noundef %73, i32 noundef %78, ptr noundef %79, i32 noundef %81, i32 noundef 2, i32 noundef %83)
  store ptr %84, ptr %16, align 8
  br label %85

85:                                               ; preds = %72
  %86 = load ptr, ptr %16, align 8
  call void @proto_item_set_generated(ptr noundef %86)
  %87 = load i32, ptr %17, align 4
  %88 = icmp sgt i32 %87, 0
  br i1 %88, label %89, label %91

89:                                               ; preds = %85
  %90 = load ptr, ptr %16, align 8
  call void @proto_item_set_hidden(ptr noundef %90)
  br label %91

91:                                               ; preds = %89, %85
  br label %92

92:                                               ; preds = %91
  br label %93

93:                                               ; preds = %92
  %94 = load ptr, ptr %7, align 8
  %95 = load i32, ptr %17, align 4
  %96 = sext i32 %95 to i64
  %97 = getelementptr [2 x %struct.anon.4], ptr %15, i64 0, i64 %96
  %98 = getelementptr inbounds nuw %struct.anon.4, ptr %97, i32 0, i32 2
  %99 = load i32, ptr %98, align 4
  %100 = load ptr, ptr %8, align 8
  %101 = load i32, ptr %9, align 4
  %102 = add i32 %101, 12
  %103 = load i32, ptr %14, align 4
  %104 = call ptr @proto_tree_add_ipv4(ptr noundef %94, i32 noundef %99, ptr noundef %100, i32 noundef %102, i32 noundef 4, i32 noundef %103)
  store ptr %104, ptr %16, align 8
  br label %105

105:                                              ; preds = %93
  %106 = load ptr, ptr %16, align 8
  call void @proto_item_set_generated(ptr noundef %106)
  %107 = load i32, ptr %17, align 4
  %108 = icmp sgt i32 %107, 0
  br i1 %108, label %109, label %111

109:                                              ; preds = %105
  %110 = load ptr, ptr %16, align 8
  call void @proto_item_set_hidden(ptr noundef %110)
  br label %111

111:                                              ; preds = %109, %105
  br label %112

112:                                              ; preds = %111
  br label %113

113:                                              ; preds = %112
  br label %114

114:                                              ; preds = %113
  %115 = load i32, ptr %17, align 4
  %116 = add i32 %115, 1
  store i32 %116, ptr %17, align 4
  br label %49, !llvm.loop !19

117:                                              ; preds = %52
  call void @llvm.lifetime.end.p0(i64 8, ptr %16) #15
  call void @llvm.lifetime.end.p0(i64 24, ptr %15) #15
  call void @llvm.lifetime.end.p0(i64 4, ptr %14) #15
  call void @llvm.lifetime.end.p0(i64 2, ptr %13) #15
  br label %118

118:                                              ; preds = %117, %22
  ret void
}