; Function Attrs: null_pointer_is_valid sspstrong uwtable
define internal fastcc void @add_ipv6_address_teredo(ptr noundef %0, ptr noundef %1, i32 noundef range(i32 8, 25) %2, i32 noundef %3, i32 noundef %4, i32 noundef %5) unnamed_addr #0 {
  %7 = alloca [2 x %struct.anon.4], align 16
  %8 = tail call i32 @tvb_get_ntohl(ptr noundef %1, i32 noundef %2)
  %.not = icmp eq i32 %8, 536936448
  %indvars.iv.sroa.gep55 = getelementptr inbounds nuw i8, ptr %7, i64 12
  br i1 %.not, label %9, label %81

9:                                                ; preds = %6
  %10 = add nuw nsw i32 %2, 10
  %11 = tail call zeroext i16 @tvb_get_ntohs(ptr noundef %1, i32 noundef %10)
  %12 = xor i16 %11, -1
  %13 = add nuw nsw i32 %2, 12
  %14 = tail call i32 @tvb_get_ipv4(ptr noundef %1, i32 noundef %13)
  %15 = xor i32 %14, -1
  call void @llvm.lifetime.start.p0(i64 24, ptr nonnull %7) #16
  store i32 %3, ptr %7, align 16
  %16 = getelementptr inbounds nuw i8, ptr %7, i64 4
  store i32 %4, ptr %16, align 4
  %17 = getelementptr inbounds nuw i8, ptr %7, i64 8
  store i32 %5, ptr %17, align 8
  %18 = getelementptr inbounds nuw i8, ptr %7, i64 12
  %19 = load i32, ptr @hf_ipv6_teredo_server_ipv4, align 4
  store i32 %19, ptr %18, align 4
  %20 = getelementptr inbounds nuw i8, ptr %7, i64 16
  %21 = load i32, ptr @hf_ipv6_teredo_port, align 4
  store i32 %21, ptr %20, align 16
  %22 = getelementptr inbounds nuw i8, ptr %7, i64 20
  %23 = load i32, ptr @hf_ipv6_teredo_client_ipv4, align 4
  store i32 %23, ptr %22, align 4
  %24 = add nuw nsw i32 %2, 4
  %25 = zext i16 %12 to i32
  br label %27

26:                                               ; preds = %proto_item_set_hidden.exit46
  call void @llvm.lifetime.end.p0(i64 24, ptr nonnull %7) #16
  br label %81

27:                                               ; preds = %9, %proto_item_set_hidden.exit46
  %.not52 = phi i1 [ false, %9 ], [ true, %proto_item_set_hidden.exit46 ]
  %28 = phi i1 [ true, %9 ], [ false, %proto_item_set_hidden.exit46 ]
  %indvars.iv.sroa.phi = phi ptr [ %7, %9 ], [ %indvars.iv.sroa.gep55, %proto_item_set_hidden.exit46 ]
  %29 = load i32, ptr %indvars.iv.sroa.phi, align 4
  %30 = tail call ptr @proto_tree_add_item(ptr noundef %0, i32 noundef %29, ptr noundef %1, i32 noundef %24, i32 noundef 4, i32 noundef 0)
  %.not.i = icmp eq ptr %30, null
  br i1 %.not.i, label %proto_item_set_hidden.exit, label %31

31:                                               ; preds = %27
  %32 = getelementptr inbounds nuw i8, ptr %30, i64 40
  %33 = load ptr, ptr %32, align 8
  %.not5.i = icmp eq ptr %33, null
  br i1 %.not5.i, label %proto_item_set_generated.exit, label %34

34:                                               ; preds = %31
  %35 = getelementptr inbounds nuw i8, ptr %33, i64 28
  %36 = load i32, ptr %35, align 4
  %37 = or i32 %36, 2
  store i32 %37, ptr %35, align 4
  br label %proto_item_set_generated.exit

proto_item_set_generated.exit:                    ; preds = %31, %34
  br i1 %.not52, label %38, label %proto_item_set_hidden.exit

38:                                               ; preds = %proto_item_set_generated.exit
  %39 = load ptr, ptr %32, align 8
  %.not5.i34 = icmp eq ptr %39, null
  br i1 %.not5.i34, label %proto_item_set_hidden.exit, label %40

40:                                               ; preds = %38
  %41 = getelementptr inbounds nuw i8, ptr %39, i64 28
  %42 = load i32, ptr %41, align 4
  %43 = or i32 %42, 1
  store i32 %43, ptr %41, align 4
  br label %proto_item_set_hidden.exit

proto_item_set_hidden.exit:                       ; preds = %27, %proto_item_set_generated.exit, %40, %38
  %44 = phi i1 [ false, %proto_item_set_generated.exit ], [ true, %38 ], [ true, %40 ], [ %.not52, %27 ]
  %45 = getelementptr inbounds nuw i8, ptr %indvars.iv.sroa.phi, i64 4
  %46 = load i32, ptr %45, align 4
  %47 = tail call ptr @proto_tree_add_uint(ptr noundef %0, i32 noundef %46, ptr noundef %1, i32 noundef %10, i32 noundef 2, i32 noundef %25)
  %.not.i35 = icmp eq ptr %47, null
  br i1 %.not.i35, label %proto_item_set_hidden.exit40, label %48

48:                                               ; preds = %proto_item_set_hidden.exit
  %49 = getelementptr inbounds nuw i8, ptr %47, i64 40
  %50 = load ptr, ptr %49, align 8
  %.not5.i36 = icmp eq ptr %50, null
  br i1 %.not5.i36, label %proto_item_set_generated.exit37, label %51

51:                                               ; preds = %48
  %52 = getelementptr inbounds nuw i8, ptr %50, i64 28
  %53 = load i32, ptr %52, align 4
  %54 = or i32 %53, 2
  store i32 %54, ptr %52, align 4
  br label %proto_item_set_generated.exit37

proto_item_set_generated.exit37:                  ; preds = %48, %51
  br i1 %44, label %55, label %proto_item_set_hidden.exit40.thread

55:                                               ; preds = %proto_item_set_generated.exit37
  %56 = load ptr, ptr %49, align 8
  %.not5.i39 = icmp eq ptr %56, null
  br i1 %.not5.i39, label %proto_item_set_hidden.exit40, label %57

57:                                               ; preds = %55
  %58 = getelementptr inbounds nuw i8, ptr %56, i64 28
  %59 = load i32, ptr %58, align 4
  %60 = or i32 %59, 1
  store i32 %60, ptr %58, align 4
  br label %proto_item_set_hidden.exit40

proto_item_set_hidden.exit40:                     ; preds = %proto_item_set_hidden.exit, %57, %55
  %61 = getelementptr inbounds nuw i8, ptr %indvars.iv.sroa.phi, i64 8
  %62 = load i32, ptr %61, align 4
  %63 = tail call ptr @proto_tree_add_ipv4(ptr noundef %0, i32 noundef %62, ptr noundef %1, i32 noundef %13, i32 noundef 4, i32 noundef %15)
  %.not.i41 = icmp eq ptr %63, null
  br i1 %.not.i41, label %proto_item_set_hidden.exit46, label %67

proto_item_set_hidden.exit40.thread:              ; preds = %proto_item_set_generated.exit37
  %64 = getelementptr inbounds nuw i8, ptr %indvars.iv.sroa.phi, i64 8
  %65 = load i32, ptr %64, align 4
  %66 = tail call ptr @proto_tree_add_ipv4(ptr noundef %0, i32 noundef %65, ptr noundef %1, i32 noundef %13, i32 noundef 4, i32 noundef %15)
  %.not.i4149 = icmp eq ptr %66, null
  br i1 %.not.i4149, label %proto_item_set_hidden.exit46, label %67

67:                                               ; preds = %proto_item_set_hidden.exit40.thread, %proto_item_set_hidden.exit40
  %68 = phi ptr [ %66, %proto_item_set_hidden.exit40.thread ], [ %63, %proto_item_set_hidden.exit40 ]
  %69 = getelementptr inbounds nuw i8, ptr %68, i64 40
  %70 = load ptr, ptr %69, align 8
  %.not5.i42 = icmp eq ptr %70, null
  br i1 %.not5.i42, label %proto_item_set_generated.exit43, label %71

71:                                               ; preds = %67
  %72 = getelementptr inbounds nuw i8, ptr %70, i64 28
  %73 = load i32, ptr %72, align 4
  %74 = or i32 %73, 2
  store i32 %74, ptr %72, align 4
  br label %proto_item_set_generated.exit43

proto_item_set_generated.exit43:                  ; preds = %67, %71
  br i1 %44, label %75, label %proto_item_set_hidden.exit46

75:                                               ; preds = %proto_item_set_generated.exit43
  %76 = load ptr, ptr %69, align 8
  %.not5.i45 = icmp eq ptr %76, null
  br i1 %.not5.i45, label %proto_item_set_hidden.exit46, label %77

77:                                               ; preds = %75
  %78 = getelementptr inbounds nuw i8, ptr %76, i64 28
  %79 = load i32, ptr %78, align 4
  %80 = or i32 %79, 1
  store i32 %80, ptr %78, align 4
  br label %proto_item_set_hidden.exit46

proto_item_set_hidden.exit46:                     ; preds = %proto_item_set_hidden.exit40, %proto_item_set_hidden.exit40.thread, %77, %75, %proto_item_set_generated.exit43
  br i1 %28, label %27, label %26, !llvm.loop !21

81:                                               ; preds = %6, %26
  ret void
}